target datalayout = "e-m:e-p270:32:32-p271:32:32-p272:64:64-i64:64-i128:128-f80:128-n8:16:32:64-S128"
target triple = "x86_64-pc-linux-gnu"

%struct.CPpmd8 = type { ptr, ptr, ptr, i32, i32, i32, i32, i32, i32, i32, i32, ptr, ptr, ptr, ptr, ptr, i32, i32, i32, i32, i32, %union.anon, [38 x i8], [128 x i8], [38 x i32], [38 x i32], [256 x i8], [260 x i8], %struct.CPpmd_See, [24 x [32 x %struct.CPpmd_See]], [25 x [64 x i16]] }
%union.anon = type { ptr }
%struct.CPpmd_See = type { i16, i8, i8 }
%struct.CPpmd8_Context_ = type { i8, i8, i16, i32, i32 }
%struct.CPpmd_State = type { i8, i8, i16, i16 }

; Function Attrs: nounwind uwtable
define internal void @NextContext(ptr noundef %0) #0 {
  %2 = alloca ptr, align 8
  %3 = alloca ptr, align 8
  store ptr %0, ptr %2, align 8, !tbaa !4
  call void @llvm.lifetime.start.p0(i64 8, ptr %3) #6
  %4 = load ptr, ptr %2, align 8, !tbaa !4
  %5 = getelementptr inbounds nuw %struct.CPpmd8, ptr %4, i32 0, i32 11
  %6 = load ptr, ptr %5, align 8, !tbaa !8
  %7 = load ptr, ptr %2, align 8, !tbaa !4
  %8 = getelementptr inbounds nuw %struct.CPpmd8, ptr %7, i32 0, i32 2
  %9 = load ptr, ptr %8, align 8, !tbaa !45
  %10 = getelementptr inbounds nuw %struct.CPpmd_State, ptr %9, i32 0, i32 2
  %11 = load i16, ptr %10, align 2, !tbaa !72
  %12 = zext i16 %11 to i32
  %13 = load ptr, ptr %2, align 8, !tbaa !4
  %14 = getelementptr inbounds nuw %struct.CPpmd8, ptr %13, i32 0, i32 2
  %15 = load ptr, ptr %14, align 8, !tbaa !45
  %16 = getelementptr inbounds nuw %struct.CPpmd_State, ptr %15, i32 0, i32 3
  %17 = load i16, ptr %16, align 2, !tbaa !73
  %18 = zext i16 %17 to i32
  %19 = shl i32 %18, 16
  %20 = or i32 %12, %19
  %21 = zext i32 %20 to i64
  %22 = getelementptr inbounds nuw i8, ptr %6, i64 %21
  store ptr %22, ptr %3, align 8, !tbaa !74
  %23 = load ptr, ptr %2, align 8, !tbaa !4
  %24 = getelementptr inbounds nuw %struct.CPpmd8, ptr %23, i32 0, i32 3
  %25 = load i32, ptr %24, align 8, !tbaa !34
  %26 = icmp eq i32 %25, 0
  br i1 %26, label %27, label %39

27:                                               ; preds = %1
  %28 = load ptr, ptr %3, align 8, !tbaa !74
  %29 = load ptr, ptr %2, align 8, !tbaa !4
  %30 = getelementptr inbounds nuw %struct.CPpmd8, ptr %29, i32 0, i32 15
  %31 = load ptr, ptr %30, align 8, !tbaa !31
  %32 = icmp uge ptr %28, %31
  br i1 %32, label %33, label %39

33:                                               ; preds = %27
  %34 = load ptr, ptr %3, align 8, !tbaa !74
  %35 = load ptr, ptr %2, align 8, !tbaa !4
  %36 = getelementptr inbounds nuw %struct.CPpmd8, ptr %35, i32 0, i32 1
  store ptr %34, ptr %36, align 8, !tbaa !38
  %37 = load ptr, ptr %2, align 8, !tbaa !4
  %38 = getelementptr inbounds nuw %struct.CPpmd8, ptr %37, i32 0, i32 0
  store ptr %34, ptr %38, align 8, !tbaa !39
  br label %46

39:                                               ; preds = %27, %1
  %40 = load ptr, ptr %2, align 8, !tbaa !4
  call void @UpdateModel(ptr noundef %40)
  %41 = load ptr, ptr %2, align 8, !tbaa !4
  %42 = getelementptr inbounds nuw %struct.CPpmd8, ptr %41, i32 0, i32 1
  %43 = load ptr, ptr %42, align 8, !tbaa !38
  %44 = load ptr, ptr %2, align 8, !tbaa !4
  %45 = getelementptr inbounds nuw %struct.CPpmd8, ptr %44, i32 0, i32 0
  store ptr %43, ptr %45, align 8, !tbaa !39
  br label %46

46:                                               ; preds = %39, %33
  call void @llvm.lifetime.end.p0(i64 8, ptr %3) #6
  ret void
}

; Function Attrs: nounwind uwtable
define internal void @SwapStates(ptr noundef %0, ptr noundef %1) #0 {
  %3 = alloca ptr, align 8
  %4 = alloca ptr, align 8
  %5 = alloca %struct.CPpmd_State, align 2
  store ptr %0, ptr %3, align 8, !tbaa !4
  store ptr %1, ptr %4, align 8, !tbaa !4
  call void @llvm.lifetime.start.p0(i64 6, ptr %5) #6
  %6 = load ptr, ptr %3, align 8, !tbaa !4
  call void @llvm.memcpy.p0.p0.i64(ptr align 2 %5, ptr align 2 %6, i64 6, i1 false), !tbaa.struct !66
  %7 = load ptr, ptr %3, align 8, !tbaa !4
  %8 = load ptr, ptr %4, align 8, !tbaa !4
  call void @llvm.memcpy.p0.p0.i64(ptr align 2 %7, ptr align 2 %8, i64 6, i1 false), !tbaa.struct !66
  %9 = load ptr, ptr %4, align 8, !tbaa !4
  call void @llvm.memcpy.p0.p0.i64(ptr align 2 %9, ptr align 2 %5, i64 6, i1 false), !tbaa.struct !66
  call void @llvm.lifetime.end.p0(i64 6, ptr %5) #6
  ret void
}

; Function Attrs: nounwind uwtable
define dso_local void @Ppmd8_Update1(ptr noundef %0) #0 {
  %2 = alloca ptr, align 8
  %3 = alloca ptr, align 8
  store ptr %0, ptr %2, align 8, !tbaa !4
  call void @llvm.lifetime.start.p0(i64 8, ptr %3) #6
  %4 = load ptr, ptr %2, align 8, !tbaa !4
  %5 = getelementptr inbounds nuw %struct.CPpmd8, ptr %4, i32 0, i32 2
  %6 = load ptr, ptr %5, align 8, !tbaa !45
  store ptr %6, ptr %3, align 8, !tbaa !4
  %7 = load ptr, ptr %3, align 8, !tbaa !4
  %8 = getelementptr inbounds nuw %struct.CPpmd_State, ptr %7, i32 0, i32 1
  %9 = load i8, ptr %8, align 1, !tbaa !49
  %10 = zext i8 %9 to i32
  %11 = add nsw i32 %10, 4
  %12 = trunc i32 %11 to i8
  store i8 %12, ptr %8, align 1, !tbaa !49
  %13 = load ptr, ptr %2, align 8, !tbaa !4
  %14 = getelementptr inbounds nuw %struct.CPpmd8, ptr %13, i32 0, i32 0
  %15 = load ptr, ptr %14, align 8, !tbaa !39
  %16 = getelementptr inbounds nuw %struct.CPpmd8_Context_, ptr %15, i32 0, i32 2
  %17 = load i16, ptr %16, align 1, !tbaa !44
  %18 = zext i16 %17 to i32
  %19 = add nsw i32 %18, 4
  %20 = trunc i32 %19 to i16
  store i16 %20, ptr %16, align 1, !tbaa !44
  %21 = load ptr, ptr %3, align 8, !tbaa !4
  %22 = getelementptr inbounds %struct.CPpmd_State, ptr %21, i64 0
  %23 = getelementptr inbounds nuw %struct.CPpmd_State, ptr %22, i32 0, i32 1
  %24 = load i8, ptr %23, align 1, !tbaa !49
  %25 = zext i8 %24 to i32
  %26 = load ptr, ptr %3, align 8, !tbaa !4
  %27 = getelementptr inbounds %struct.CPpmd_State, ptr %26, i64 -1
  %28 = getelementptr inbounds nuw %struct.CPpmd_State, ptr %27, i32 0, i32 1
  %29 = load i8, ptr %28, align 1, !tbaa !49
  %30 = zext i8 %29 to i32
  %31 = icmp sgt i32 %25, %30
  br i1 %31, label %32, label %49

32:                                               ; preds = %1
  %33 = load ptr, ptr %3, align 8, !tbaa !4
  %34 = getelementptr inbounds %struct.CPpmd_State, ptr %33, i64 0
  %35 = load ptr, ptr %3, align 8, !tbaa !4
  %36 = getelementptr inbounds %struct.CPpmd_State, ptr %35, i64 -1
  call void @SwapStates(ptr noundef %34, ptr noundef %36)
  %37 = load ptr, ptr %3, align 8, !tbaa !4
  %38 = getelementptr inbounds %struct.CPpmd_State, ptr %37, i32 -1
  store ptr %38, ptr %3, align 8, !tbaa !4
  %39 = load ptr, ptr %2, align 8, !tbaa !4
  %40 = getelementptr inbounds nuw %struct.CPpmd8, ptr %39, i32 0, i32 2
  store ptr %38, ptr %40, align 8, !tbaa !45
  %41 = load ptr, ptr %3, align 8, !tbaa !4
  %42 = getelementptr inbounds nuw %struct.CPpmd_State, ptr %41, i32 0, i32 1
  %43 = load i8, ptr %42, align 1, !tbaa !49
  %44 = zext i8 %43 to i32
  %45 = icmp sgt i32 %44, 124
  br i1 %45, label %46, label %48

46:                                               ; preds = %32
  %47 = load ptr, ptr %2, align 8, !tbaa !4
  call void @Rescale(ptr noundef %47)
  br label %48

48:                                               ; preds = %46, %32
  br label %49

49:                                               ; preds = %48, %1
  %50 = load ptr, ptr %2, align 8, !tbaa !4
  call void @NextContext(ptr noundef %50)
  call void @llvm.lifetime.end.p0(i64 8, ptr %3) #6
  ret void
}