; Function Attrs: nofree nosync nounwind memory(readwrite, inaccessiblemem: none) uwtable
define dso_local void @Ppmd8_Update1(ptr noundef %0) local_unnamed_addr #8 {
  %2 = alloca %struct.CPpmd_State, align 2
  %3 = getelementptr inbounds nuw i8, ptr %0, i64 16
  %4 = load ptr, ptr %3, align 8, !tbaa !42
  %5 = getelementptr inbounds nuw i8, ptr %4, i64 1
  %6 = load i8, ptr %5, align 1, !tbaa !47
  %7 = add i8 %6, 4
  store i8 %7, ptr %5, align 1, !tbaa !47
  %8 = load ptr, ptr %0, align 8, !tbaa !36
  %9 = getelementptr inbounds nuw i8, ptr %8, i64 2
  %10 = load i16, ptr %9, align 1, !tbaa !41
  %11 = add i16 %10, 4
  store i16 %11, ptr %9, align 1, !tbaa !41
  %12 = getelementptr inbounds i8, ptr %4, i64 -5
  %13 = load i8, ptr %12, align 1, !tbaa !47
  %14 = icmp ugt i8 %7, %13
  br i1 %14, label %15, label %20

15:                                               ; preds = %1
  %16 = getelementptr inbounds i8, ptr %4, i64 -6
  call void @llvm.lifetime.start.p0(i64 6, ptr nonnull %2)
  call void @llvm.memcpy.p0.p0.i64(ptr noundef nonnull align 2 dereferenceable(6) %2, ptr noundef nonnull align 2 dereferenceable(6) %4, i64 6, i1 false), !tbaa.struct !63
  tail call void @llvm.memcpy.p0.p0.i64(ptr noundef nonnull align 2 dereferenceable(6) %4, ptr noundef nonnull align 2 dereferenceable(6) %16, i64 6, i1 false), !tbaa.struct !63
  call void @llvm.memcpy.p0.p0.i64(ptr noundef nonnull align 2 dereferenceable(6) %16, ptr noundef nonnull align 2 dereferenceable(6) %2, i64 6, i1 false), !tbaa.struct !63
  call void @llvm.lifetime.end.p0(i64 6, ptr nonnull %2)
  store ptr %16, ptr %3, align 8, !tbaa !42
  %17 = load i8, ptr %12, align 1, !tbaa !47
  %18 = icmp ugt i8 %17, 124
  br i1 %18, label %19, label %20

19:                                               ; preds = %15
  tail call fastcc void @Rescale(ptr noundef nonnull %0)
  %.pre = load ptr, ptr %3, align 8, !tbaa !42
  br label %20

20:                                               ; preds = %15, %19, %1
  %21 = phi ptr [ %16, %15 ], [ %.pre, %19 ], [ %4, %1 ]
  %22 = getelementptr inbounds nuw i8, ptr %0, i64 56
  %23 = load ptr, ptr %22, align 8, !tbaa !4
  %24 = getelementptr inbounds nuw i8, ptr %21, i64 2
  %25 = load i32, ptr %24, align 2
  %26 = zext i32 %25 to i64
  %27 = getelementptr inbounds nuw i8, ptr %23, i64 %26
  %28 = getelementptr inbounds nuw i8, ptr %0, i64 24
  %29 = load i32, ptr %28, align 8, !tbaa !30
  %30 = icmp eq i32 %29, 0
  br i1 %30, label %31, label %36

31:                                               ; preds = %20
  %32 = getelementptr inbounds nuw i8, ptr %0, i64 88
  %33 = load ptr, ptr %32, align 8, !tbaa !28
  %.not.i = icmp ult ptr %27, %33
  br i1 %.not.i, label %36, label %34

34:                                               ; preds = %31
  %35 = getelementptr inbounds nuw i8, ptr %0, i64 8
  store ptr %27, ptr %35, align 8, !tbaa !35
  br label %NextContext.exit

36:                                               ; preds = %31, %20
  tail call fastcc void @UpdateModel(ptr noundef nonnull %0)
  %37 = getelementptr inbounds nuw i8, ptr %0, i64 8
  %38 = load ptr, ptr %37, align 8, !tbaa !35
  br label %NextContext.exit

NextContext.exit:                                 ; preds = %34, %36
  %storemerge.i = phi ptr [ %38, %36 ], [ %27, %34 ]
  store ptr %storemerge.i, ptr %0, align 8, !tbaa !36
  ret void
}